target datalayout = "e-m:e-p270:32:32-p271:32:32-p272:64:64-i64:64-i128:128-f80:128-n8:16:32:64-S128"
target triple = "x86_64-pc-linux-gnu"

%"struct.std::pair" = type <{ ptr, i32, [4 x i8] }>
%class.collect_occs = type { %class.ast_fast_mark, %class.ast_fast_mark.0, %class.svector, %class.ptr_vector }
%class.ast_fast_mark = type { %class.ptr_buffer }
%class.ptr_buffer = type { %class.buffer }
%class.buffer = type { ptr, i32, i32, [128 x i8] }
%class.ast_fast_mark.0 = type { %class.ptr_buffer }
%class.svector = type { %class.vector }
%class.vector = type { ptr }
%class.ptr_vector = type { %class.vector.1 }
%class.vector.1 = type { ptr }
%class.app = type { %class.expr, ptr, i32, %struct.app_flags, [0 x ptr] }
%class.expr = type { %class.ast }
%class.ast = type { i32, i32, i32, i32 }
%struct.app_flags = type <{ i16, i8, i8 }>
%class.quantifier = type { %class.expr, i32, i32, ptr, ptr, i32, i32, i8, i8, %class.symbol, %class.symbol, i32, i32, [0 x i8] }
%class.symbol = type { ptr }

@.str = private unnamed_addr constant [116 x i8] c"generated/home/dtcxzyw/WorkSpace/Projects/compilers/llvm-opt-benchmark/bench/z3/z3/src/tactic/core/collect_occs.cpp\00", align 1
@.str.1 = private unnamed_addr constant [29 x i8] c"UNEXPECTED CODE WAS REACHED.\00", align 1

; Function Attrs: mustprogress nounwind uwtable
define linkonce_odr hidden noundef nonnull align 8 dereferenceable(12) ptr @_ZN6vectorISt4pairIP4exprjELb0EjEixEj(ptr noundef nonnull align 8 dereferenceable(8) %0, i32 noundef %1) #8 comdat align 2 {
  %3 = alloca ptr, align 8
  %4 = alloca i32, align 4
  store ptr %0, ptr %3, align 8, !tbaa !33
  store i32 %1, ptr %4, align 4, !tbaa !12
  %5 = load ptr, ptr %3, align 8
  %6 = getelementptr inbounds nuw %class.vector, ptr %5, i32 0, i32 0
  %7 = load ptr, ptr %6, align 8, !tbaa !37
  %8 = load i32, ptr %4, align 4, !tbaa !12
  %9 = zext i32 %8 to i64
  %10 = getelementptr inbounds nuw %"struct.std::pair", ptr %7, i64 %9
  ret ptr %10
}

; Function Attrs: mustprogress nounwind uwtable
define linkonce_odr hidden noundef i32 @_ZNK6vectorISt4pairIP4exprjELb0EjE4sizeEv(ptr noundef nonnull align 8 dereferenceable(8) %0) #8 comdat align 2 {
  %2 = alloca i32, align 4
  %3 = alloca ptr, align 8
  store ptr %0, ptr %3, align 8, !tbaa !33
  %4 = load ptr, ptr %3, align 8
  %5 = getelementptr inbounds nuw %class.vector, ptr %4, i32 0, i32 0
  %6 = load ptr, ptr %5, align 8, !tbaa !37
  %7 = icmp eq ptr %6, null
  br i1 %7, label %8, label %9

8:                                                ; preds = %1
  store i32 0, ptr %2, align 4
  br label %14

9:                                                ; preds = %1
  %10 = getelementptr inbounds nuw %class.vector, ptr %4, i32 0, i32 0
  %11 = load ptr, ptr %10, align 8, !tbaa !37
  %12 = getelementptr inbounds i32, ptr %11, i64 -1
  %13 = load i32, ptr %12, align 4, !tbaa !12
  store i32 %13, ptr %2, align 4
  br label %14

14:                                               ; preds = %9, %8
  %15 = load i32, ptr %2, align 4
  ret i32 %15
}

; Function Attrs: mustprogress nounwind uwtable
define linkonce_odr hidden noundef ptr @_ZNK10quantifier8get_exprEv(ptr noundef nonnull align 8 dereferenceable(80) %0) #8 comdat align 2 {
  %2 = alloca ptr, align 8
  store ptr %0, ptr %2, align 8, !tbaa !49
  %3 = load ptr, ptr %2, align 8
  %4 = getelementptr inbounds nuw %class.quantifier, ptr %3, i32 0, i32 3
  %5 = load ptr, ptr %4, align 8, !tbaa !51
  ret ptr %5
}

; Function Attrs: inlinehint mustprogress nounwind uwtable
define linkonce_odr hidden noundef ptr @_Z13to_quantifierP3ast(ptr noundef %0) #7 comdat {
  %2 = alloca ptr, align 8
  store ptr %0, ptr %2, align 8, !tbaa !16
  %3 = load ptr, ptr %2, align 8, !tbaa !16
  ret ptr %3
}

; Function Attrs: mustprogress nounwind uwtable
define linkonce_odr hidden void @_ZN6vectorISt4pairIP4exprjELb0EjE8pop_backEv(ptr noundef nonnull align 8 dereferenceable(8) %0) #8 comdat align 2 {
  %2 = alloca ptr, align 8
  store ptr %0, ptr %2, align 8, !tbaa !33
  %3 = load ptr, ptr %2, align 8
  %4 = getelementptr inbounds nuw %class.vector, ptr %3, i32 0, i32 0
  %5 = load ptr, ptr %4, align 8, !tbaa !37
  %6 = getelementptr inbounds i32, ptr %5, i64 -1
  %7 = load i32, ptr %6, align 4, !tbaa !12
  %8 = add i32 %7, -1
  store i32 %8, ptr %6, align 4, !tbaa !12
  ret void
}

; Function Attrs: mustprogress nounwind uwtable
define linkonce_odr hidden noundef ptr @_ZNK3app7get_argEj(ptr noundef nonnull align 8 dereferenceable(32) %0, i32 noundef %1) #8 comdat align 2 {
  %3 = alloca ptr, align 8
  %4 = alloca i32, align 4
  store ptr %0, ptr %3, align 8, !tbaa !10
  store i32 %1, ptr %4, align 4, !tbaa !12
  %5 = load ptr, ptr %3, align 8
  %6 = getelementptr inbounds nuw %class.app, ptr %5, i32 0, i32 4
  %7 = load i32, ptr %4, align 4, !tbaa !12
  %8 = zext i32 %7 to i64
  %9 = getelementptr inbounds nuw [0 x ptr], ptr %6, i64 0, i64 %8
  %10 = load ptr, ptr %9, align 8, !tbaa !8
  ret ptr %10
}

; Function Attrs: mustprogress nounwind uwtable
define linkonce_odr hidden noundef i32 @_ZNK3app12get_num_argsEv(ptr noundef nonnull align 8 dereferenceable(32) %0) #8 comdat align 2 {
  %2 = alloca ptr, align 8
  store ptr %0, ptr %2, align 8, !tbaa !10
  %3 = load ptr, ptr %2, align 8
  %4 = getelementptr inbounds nuw %class.app, ptr %3, i32 0, i32 2
  %5 = load i32, ptr %4, align 8, !tbaa !27
  ret i32 %5
}

; Function Attrs: inlinehint mustprogress nounwind uwtable
define linkonce_odr hidden noundef ptr @_Z6to_appP3ast(ptr noundef %0) #7 comdat {
  %2 = alloca ptr, align 8
  store ptr %0, ptr %2, align 8, !tbaa !16
  %3 = load ptr, ptr %2, align 8, !tbaa !16
  ret ptr %3
}

; Function Attrs: mustprogress nounwind uwtable
define linkonce_odr hidden noundef i32 @_ZNK3ast8get_kindEv(ptr noundef nonnull align 4 dereferenceable(16) %0) #8 comdat align 2 {
  %2 = alloca ptr, align 8
  store ptr %0, ptr %2, align 8, !tbaa !16
  %3 = load ptr, ptr %2, align 8
  %4 = getelementptr inbounds nuw %class.ast, ptr %3, i32 0, i32 1
  %5 = load i32, ptr %4, align 4
  %6 = and i32 %5, 65535
  ret i32 %6
}

; Function Attrs: mustprogress uwtable
define linkonce_odr hidden noundef nonnull align 8 dereferenceable(12) ptr @_ZN6vectorISt4pairIP4exprjELb0EjE4backEv(ptr noundef nonnull align 8 dereferenceable(8) %0) #4 comdat align 2 {
  %2 = alloca ptr, align 8
  store ptr %0, ptr %2, align 8, !tbaa !33
  %3 = load ptr, ptr %2, align 8
  %4 = call noundef i32 @_ZNK6vectorISt4pairIP4exprjELb0EjE4sizeEv(ptr noundef nonnull align 8 dereferenceable(8) %3)
  %5 = sub i32 %4, 1
  %6 = call noundef nonnull align 8 dereferenceable(12) ptr @_ZN6vectorISt4pairIP4exprjELb0EjEixEj(ptr noundef nonnull align 8 dereferenceable(8) %3, i32 noundef %5)
  ret ptr %6
}

; Function Attrs: mustprogress nounwind uwtable
define linkonce_odr hidden noundef zeroext i1 @_ZNK6vectorISt4pairIP4exprjELb0EjE5emptyEv(ptr noundef nonnull align 8 dereferenceable(8) %0) #8 comdat align 2 {
  %2 = alloca ptr, align 8
  store ptr %0, ptr %2, align 8, !tbaa !33
  %3 = load ptr, ptr %2, align 8
  %4 = getelementptr inbounds nuw %class.vector, ptr %3, i32 0, i32 0
  %5 = load ptr, ptr %4, align 8, !tbaa !37
  %6 = icmp eq ptr %5, null
  br i1 %6, label %13, label %7

7:                                                ; preds = %1
  %8 = getelementptr inbounds nuw %class.vector, ptr %3, i32 0, i32 0
  %9 = load ptr, ptr %8, align 8, !tbaa !37
  %10 = getelementptr inbounds i32, ptr %9, i64 -1
  %11 = load i32, ptr %10, align 4, !tbaa !12
  %12 = icmp eq i32 %11, 0
  br label %13

13:                                               ; preds = %7, %1
  %14 = phi i1 [ true, %1 ], [ %12, %7 ]
  ret i1 %14
}

; Function Attrs: mustprogress uwtable
define hidden void @_ZN12collect_occs7processEP4expr(ptr noundef nonnull align 8 dereferenceable(304) %0, ptr noundef %1) #4 align 2 {
  %3 = alloca ptr, align 8
  %4 = alloca ptr, align 8
  %5 = alloca i32, align 4
  %6 = alloca ptr, align 8
  %7 = alloca ptr, align 8
  %8 = alloca ptr, align 8
  %9 = alloca i32, align 4
  store ptr %0, ptr %3, align 8, !tbaa !3
  store ptr %1, ptr %4, align 8, !tbaa !8
  %10 = load ptr, ptr %3, align 8
  %11 = load ptr, ptr %4, align 8, !tbaa !8
  %12 = call noundef zeroext i1 @_ZN12collect_occs5visitEP4expr(ptr noundef nonnull align 8 dereferenceable(304) %10, ptr noundef %11)
  br i1 %12, label %13, label %14

13:                                               ; preds = %2
  br label %74

14:                                               ; preds = %2
  call void @llvm.lifetime.start.p0(i64 4, ptr %5) #3
  call void @llvm.lifetime.start.p0(i64 8, ptr %6) #3
  br label %15

15:                                               ; preds = %72, %14
  %16 = getelementptr inbounds nuw %class.collect_occs, ptr %10, i32 0, i32 2
  %17 = call noundef zeroext i1 @_ZNK6vectorISt4pairIP4exprjELb0EjE5emptyEv(ptr noundef nonnull align 8 dereferenceable(8) %16)
  %18 = xor i1 %17, true
  br i1 %18, label %19, label %73

19:                                               ; preds = %15
  br label %20

20:                                               ; preds = %70, %19
  call void @llvm.lifetime.start.p0(i64 8, ptr %7) #3
  %21 = getelementptr inbounds nuw %class.collect_occs, ptr %10, i32 0, i32 2
  %22 = call noundef nonnull align 8 dereferenceable(12) ptr @_ZN6vectorISt4pairIP4exprjELb0EjE4backEv(ptr noundef nonnull align 8 dereferenceable(8) %21)
  store ptr %22, ptr %7, align 8, !tbaa !35
  call void @llvm.lifetime.start.p0(i64 8, ptr %8) #3
  %23 = load ptr, ptr %7, align 8, !tbaa !35
  %24 = getelementptr inbounds nuw %"struct.std::pair", ptr %23, i32 0, i32 0
  %25 = load ptr, ptr %24, align 8, !tbaa !43
  store ptr %25, ptr %8, align 8, !tbaa !8
  %26 = load ptr, ptr %8, align 8, !tbaa !8
  %27 = call noundef i32 @_ZNK3ast8get_kindEv(ptr noundef nonnull align 4 dereferenceable(16) %26)
  switch i32 %27, label %68 [
    i32 0, label %28
    i32 2, label %55
  ]

28:                                               ; preds = %20
  %29 = load ptr, ptr %8, align 8, !tbaa !8
  %30 = call noundef ptr @_Z6to_appP3ast(ptr noundef %29)
  %31 = call noundef i32 @_ZNK3app12get_num_argsEv(ptr noundef nonnull align 8 dereferenceable(32) %30)
  store i32 %31, ptr %5, align 4, !tbaa !12
  br label %32

32:                                               ; preds = %52, %28
  %33 = load ptr, ptr %7, align 8, !tbaa !35
  %34 = getelementptr inbounds nuw %"struct.std::pair", ptr %33, i32 0, i32 1
  %35 = load i32, ptr %34, align 8, !tbaa !45
  %36 = load i32, ptr %5, align 4, !tbaa !12
  %37 = icmp ult i32 %35, %36
  br i1 %37, label %38, label %53

38:                                               ; preds = %32
  %39 = load ptr, ptr %8, align 8, !tbaa !8
  %40 = call noundef ptr @_Z6to_appP3ast(ptr noundef %39)
  %41 = load ptr, ptr %7, align 8, !tbaa !35
  %42 = getelementptr inbounds nuw %"struct.std::pair", ptr %41, i32 0, i32 1
  %43 = load i32, ptr %42, align 8, !tbaa !45
  %44 = call noundef ptr @_ZNK3app7get_argEj(ptr noundef nonnull align 8 dereferenceable(32) %40, i32 noundef %43)
  store ptr %44, ptr %6, align 8, !tbaa !8
  %45 = load ptr, ptr %7, align 8, !tbaa !35
  %46 = getelementptr inbounds nuw %"struct.std::pair", ptr %45, i32 0, i32 1
  %47 = load i32, ptr %46, align 8, !tbaa !45
  %48 = add i32 %47, 1
  store i32 %48, ptr %46, align 8, !tbaa !45
  %49 = load ptr, ptr %6, align 8, !tbaa !8
  %50 = call noundef zeroext i1 @_ZN12collect_occs5visitEP4expr(ptr noundef nonnull align 8 dereferenceable(304) %10, ptr noundef %49)
  br i1 %50, label %52, label %51

51:                                               ; preds = %38
  store i32 4, ptr %9, align 4
  br label %70

52:                                               ; preds = %38
  br label %32, !llvm.loop !46

53:                                               ; preds = %32
  %54 = getelementptr inbounds nuw %class.collect_occs, ptr %10, i32 0, i32 2
  call void @_ZN6vectorISt4pairIP4exprjELb0EjE8pop_backEv(ptr noundef nonnull align 8 dereferenceable(8) %54)
  br label %69

55:                                               ; preds = %20
  %56 = load ptr, ptr %8, align 8, !tbaa !8
  %57 = call noundef ptr @_Z13to_quantifierP3ast(ptr noundef %56)
  %58 = call noundef ptr @_ZNK10quantifier8get_exprEv(ptr noundef nonnull align 8 dereferenceable(80) %57)
  store ptr %58, ptr %6, align 8, !tbaa !8
  %59 = load ptr, ptr %7, align 8, !tbaa !35
  %60 = getelementptr inbounds nuw %"struct.std::pair", ptr %59, i32 0, i32 1
  %61 = load i32, ptr %60, align 8, !tbaa !45
  %62 = add i32 %61, 1
  store i32 %62, ptr %60, align 8, !tbaa !45
  %63 = load ptr, ptr %6, align 8, !tbaa !8
  %64 = call noundef zeroext i1 @_ZN12collect_occs5visitEP4expr(ptr noundef nonnull align 8 dereferenceable(304) %10, ptr noundef %63)
  br i1 %64, label %66, label %65

65:                                               ; preds = %55
  store i32 4, ptr %9, align 4
  br label %70

66:                                               ; preds = %55
  %67 = getelementptr inbounds nuw %class.collect_occs, ptr %10, i32 0, i32 2
  call void @_ZN6vectorISt4pairIP4exprjELb0EjE8pop_backEv(ptr noundef nonnull align 8 dereferenceable(8) %67)
  br label %69

68:                                               ; preds = %20
  call void @_Z26notify_assertion_violationPKciS0_(ptr noundef @.str, i32 noundef 75, ptr noundef @.str.1)
  call void @_Z18invoke_exit_actionj(i32 noundef 114)
  br label %69

69:                                               ; preds = %68, %66, %53
  store i32 0, ptr %9, align 4
  br label %70

70:                                               ; preds = %69, %65, %51
  call void @llvm.lifetime.end.p0(i64 8, ptr %8) #3
  call void @llvm.lifetime.end.p0(i64 8, ptr %7) #3
  %71 = load i32, ptr %9, align 4
  switch i32 %71, label %75 [
    i32 0, label %72
    i32 4, label %20
  ]

72:                                               ; preds = %70
  br label %15, !llvm.loop !48

73:                                               ; preds = %15
  call void @llvm.lifetime.end.p0(i64 8, ptr %6) #3
  call void @llvm.lifetime.end.p0(i64 4, ptr %5) #3
  br label %74

74:                                               ; preds = %73, %13
  ret void

75:                                               ; preds = %70
  unreachable
}