; Function Attrs: mustprogress uwtable
define hidden void @_ZN12collect_occs7processEP4expr(ptr noundef nonnull align 8 dereferenceable(304) %0, ptr noundef %1) local_unnamed_addr #3 align 2 {
  %3 = tail call noundef zeroext i1 @_ZN12collect_occs5visitEP4expr(ptr noundef nonnull align 8 dereferenceable(304) %0, ptr noundef %1)
  br i1 %3, label %_ZNK6vectorISt4pairIP4exprjELb0EjE5emptyEv.exit.thread, label %.preheader14

.preheader14:                                     ; preds = %2
  %4 = getelementptr inbounds nuw i8, ptr %0, i64 288
  %5 = load ptr, ptr %4, align 8, !tbaa !40
  %6 = icmp eq ptr %5, null
  br i1 %6, label %_ZNK6vectorISt4pairIP4exprjELb0EjE5emptyEv.exit.thread, label %_ZNK6vectorISt4pairIP4exprjELb0EjE5emptyEv.exit

_ZNK6vectorISt4pairIP4exprjELb0EjE5emptyEv.exit:  ; preds = %.preheader14, %54
  %7 = phi ptr [ %55, %54 ], [ %5, %.preheader14 ]
  %8 = getelementptr inbounds i8, ptr %7, i64 -4
  %9 = load i32, ptr %8, align 4, !tbaa !37
  %10 = icmp eq i32 %9, 0
  br i1 %10, label %_ZNK6vectorISt4pairIP4exprjELb0EjE5emptyEv.exit.thread, label %.preheader

.critedge:                                        ; preds = %30, %41
  %.pre = load ptr, ptr %4, align 8, !tbaa !40
  br label %.preheader

.preheader:                                       ; preds = %_ZNK6vectorISt4pairIP4exprjELb0EjE5emptyEv.exit, %.critedge
  %11 = phi ptr [ %.pre, %.critedge ], [ %7, %_ZNK6vectorISt4pairIP4exprjELb0EjE5emptyEv.exit ]
  %12 = icmp eq ptr %11, null
  br i1 %12, label %_ZN6vectorISt4pairIP4exprjELb0EjE4backEv.exit, label %13

13:                                               ; preds = %.preheader
  %14 = getelementptr inbounds i8, ptr %11, i64 -4
  %15 = load i32, ptr %14, align 4, !tbaa !37
  %16 = add i32 %15, -1
  %17 = zext i32 %16 to i64
  br label %_ZN6vectorISt4pairIP4exprjELb0EjE4backEv.exit

_ZN6vectorISt4pairIP4exprjELb0EjE4backEv.exit:    ; preds = %.preheader, %13
  %.0.i.i = phi i64 [ %17, %13 ], [ 4294967295, %.preheader ]
  %18 = getelementptr inbounds nuw %"struct.std::pair", ptr %11, i64 %.0.i.i
  %19 = load ptr, ptr %18, align 8, !tbaa !43
  %20 = getelementptr inbounds nuw i8, ptr %19, i64 4
  %21 = load i32, ptr %20, align 4
  %trunc = trunc i32 %21 to i16
  switch i16 %trunc, label %53 [
    i16 0, label %22
    i16 2, label %41
  ]

22:                                               ; preds = %_ZN6vectorISt4pairIP4exprjELb0EjE4backEv.exit
  %23 = getelementptr inbounds nuw i8, ptr %19, i64 24
  %24 = load i32, ptr %23, align 8, !tbaa !3
  %25 = getelementptr inbounds nuw i8, ptr %18, i64 8
  %26 = getelementptr inbounds nuw i8, ptr %19, i64 32
  br label %27

27:                                               ; preds = %30, %22
  %28 = load i32, ptr %25, align 8, !tbaa !46
  %29 = icmp ult i32 %28, %24
  br i1 %29, label %30, label %36

30:                                               ; preds = %27
  %31 = zext i32 %28 to i64
  %32 = getelementptr inbounds nuw [0 x ptr], ptr %26, i64 0, i64 %31
  %33 = load ptr, ptr %32, align 8, !tbaa !47
  %34 = add nuw i32 %28, 1
  store i32 %34, ptr %25, align 8, !tbaa !46
  %35 = tail call noundef zeroext i1 @_ZN12collect_occs5visitEP4expr(ptr noundef nonnull align 8 dereferenceable(304) %0, ptr noundef %33)
  br i1 %35, label %27, label %.critedge, !llvm.loop !48

36:                                               ; preds = %27
  %37 = load ptr, ptr %4, align 8, !tbaa !40
  %38 = getelementptr inbounds i8, ptr %37, i64 -4
  %39 = load i32, ptr %38, align 4, !tbaa !37
  %40 = add i32 %39, -1
  store i32 %40, ptr %38, align 4, !tbaa !37
  br label %54

41:                                               ; preds = %_ZN6vectorISt4pairIP4exprjELb0EjE4backEv.exit
  %42 = getelementptr inbounds nuw i8, ptr %19, i64 24
  %43 = load ptr, ptr %42, align 8, !tbaa !49
  %44 = getelementptr inbounds nuw i8, ptr %18, i64 8
  %45 = load i32, ptr %44, align 8, !tbaa !46
  %46 = add i32 %45, 1
  store i32 %46, ptr %44, align 8, !tbaa !46
  %47 = tail call noundef zeroext i1 @_ZN12collect_occs5visitEP4expr(ptr noundef nonnull align 8 dereferenceable(304) %0, ptr noundef %43)
  br i1 %47, label %48, label %.critedge

48:                                               ; preds = %41
  %49 = load ptr, ptr %4, align 8, !tbaa !40
  %50 = getelementptr inbounds i8, ptr %49, i64 -4
  %51 = load i32, ptr %50, align 4, !tbaa !37
  %52 = add i32 %51, -1
  store i32 %52, ptr %50, align 4, !tbaa !37
  br label %54

53:                                               ; preds = %_ZN6vectorISt4pairIP4exprjELb0EjE4backEv.exit
  tail call void @_Z26notify_assertion_violationPKciS0_(ptr noundef nonnull @.str, i32 noundef 75, ptr noundef nonnull @.str.1)
  tail call void @_Z18invoke_exit_actionj(i32 noundef 114)
  %.pre15 = load ptr, ptr %4, align 8, !tbaa !40
  br label %54

54:                                               ; preds = %36, %48, %53
  %55 = phi ptr [ %37, %36 ], [ %49, %48 ], [ %.pre15, %53 ]
  %56 = icmp eq ptr %55, null
  br i1 %56, label %_ZNK6vectorISt4pairIP4exprjELb0EjE5emptyEv.exit.thread, label %_ZNK6vectorISt4pairIP4exprjELb0EjE5emptyEv.exit

_ZNK6vectorISt4pairIP4exprjELb0EjE5emptyEv.exit.thread: ; preds = %_ZNK6vectorISt4pairIP4exprjELb0EjE5emptyEv.exit, %54, %.preheader14, %2
  ret void
}